target datalayout = "e-m:e-p270:32:32-p271:32:32-p272:64:64-i64:64-i128:128-f80:128-n8:16:32:64-S128"
target triple = "x86_64-pc-linux-gnu"

%"class.gmx::ISimulatorElement" = type { ptr }
%"class.gmx::MttkBoxScaling" = type { %"class.gmx::ISimulatorElement", float, ptr, ptr }

; Function Attrs: inlinehint mustprogress nounwind uwtable
define linkonce_odr void @_ZN3gmx17ISimulatorElementC2Ev(ptr noundef nonnull align 8 dereferenceable(8) %0) unnamed_addr #0 comdat align 2 {
  %2 = alloca ptr, align 8
  store ptr %0, ptr %2, align 8, !tbaa !60
  %3 = load ptr, ptr %2, align 8
  store ptr getelementptr inbounds inrange(-16, 40) ({ [7 x ptr] }, ptr @_ZTVN3gmx17ISimulatorElementE, i32 0, i32 0, i32 2), ptr %3, align 8, !tbaa !414
  ret void
}

; Function Attrs: mustprogress nounwind uwtable
define void @_ZN3gmx14MttkBoxScalingC2EfPNS_19StatePropagatorDataEPNS_8MttkDataE(ptr noundef nonnull align 8 dereferenceable(32) %0, float noundef %1, ptr noundef %2, ptr noundef %3) unnamed_addr #2 align 2 {
  %5 = alloca ptr, align 8
  %6 = alloca float, align 4
  %7 = alloca ptr, align 8
  %8 = alloca ptr, align 8
  store ptr %0, ptr %5, align 8, !tbaa !56
  store float %1, ptr %6, align 4, !tbaa !111
  store ptr %2, ptr %7, align 8, !tbaa !66
  store ptr %3, ptr %8, align 8, !tbaa !4
  %9 = load ptr, ptr %5, align 8
  call void @_ZN3gmx17ISimulatorElementC2Ev(ptr noundef nonnull align 8 dereferenceable(8) %9) #21
  store ptr getelementptr inbounds inrange(-16, 40) ({ [7 x ptr] }, ptr @_ZTVN3gmx14MttkBoxScalingE, i32 0, i32 0, i32 2), ptr %9, align 8, !tbaa !414
  %10 = getelementptr inbounds nuw %"class.gmx::MttkBoxScaling", ptr %9, i32 0, i32 1
  %11 = load float, ptr %6, align 4, !tbaa !111
  store float %11, ptr %10, align 8, !tbaa !1156
  %12 = getelementptr inbounds nuw %"class.gmx::MttkBoxScaling", ptr %9, i32 0, i32 2
  %13 = load ptr, ptr %7, align 8, !tbaa !66
  store ptr %13, ptr %12, align 8, !tbaa !1158
  %14 = getelementptr inbounds nuw %"class.gmx::MttkBoxScaling", ptr %9, i32 0, i32 3
  %15 = load ptr, ptr %8, align 8, !tbaa !4
  store ptr %15, ptr %14, align 8, !tbaa !1159
  ret void
}