; Function Attrs: mustprogress nofree norecurse nosync nounwind willreturn memory(argmem: write) uwtable
define void @_ZN3gmx14MttkBoxScalingC2EfPNS_19StatePropagatorDataEPNS_8MttkDataE(ptr noundef nonnull writeonly align 8 captures(none) dereferenceable(32) initializes((0, 12), (16, 32)) %0, float noundef %1, ptr noundef %2, ptr noundef %3) unnamed_addr #6 align 2 {
  store ptr getelementptr inbounds nuw inrange(-16, 40) (i8, ptr @_ZTVN3gmx14MttkBoxScalingE, i64 16), ptr %0, align 8, !tbaa !289
  %5 = getelementptr inbounds nuw i8, ptr %0, i64 8
  store float %1, ptr %5, align 8, !tbaa !545
  %6 = getelementptr inbounds nuw i8, ptr %0, i64 16
  store ptr %2, ptr %6, align 8, !tbaa !547
  %7 = getelementptr inbounds nuw i8, ptr %0, i64 24
  store ptr %3, ptr %7, align 8, !tbaa !548
  ret void
}